; Function Attrs: mustprogress uwtable
define hidden void @_ZN17mk_simplified_appclEP9func_decljPKP4exprR7obj_refIS2_11ast_managerE(ptr noundef nonnull readonly align 8 captures(none) dereferenceable(8) %0, ptr noundef %1, i32 noundef %2, ptr noundef %3, ptr noundef nonnull align 8 dereferenceable(16) %4) local_unnamed_addr #3 align 2 {
  %6 = load ptr, ptr %4, align 8, !tbaa !73
  %.not.i4.i = icmp eq ptr %6, null
  br i1 %.not.i4.i, label %_ZN7obj_refI4expr11ast_managerEaSEPS0_.exit, label %7

7:                                                ; preds = %5
  %8 = getelementptr inbounds nuw i8, ptr %4, i64 8
  %9 = load ptr, ptr %8, align 8, !tbaa !74
  %10 = getelementptr inbounds nuw i8, ptr %6, i64 8
  %11 = load i32, ptr %10, align 4, !tbaa !75
  %12 = add i32 %11, -1
  store i32 %12, ptr %10, align 4, !tbaa !75
  %13 = icmp eq i32 %12, 0
  br i1 %13, label %14, label %_ZN7obj_refI4expr11ast_managerEaSEPS0_.exit

14:                                               ; preds = %7
  tail call void @_ZN11ast_manager11delete_nodeEP3ast(ptr noundef nonnull align 8 dereferenceable(976) %9, ptr noundef nonnull %6)
  br label %_ZN7obj_refI4expr11ast_managerEaSEPS0_.exit

_ZN7obj_refI4expr11ast_managerEaSEPS0_.exit:      ; preds = %5, %7, %14
  store ptr null, ptr %4, align 8, !tbaa !73
  %15 = load ptr, ptr %0, align 8, !tbaa !3
  %16 = tail call noundef i32 @_ZN17mk_simplified_app3imp7mk_coreEP9func_decljPKP4exprR7obj_refIS3_11ast_managerE(ptr noundef nonnull align 8 dereferenceable(464) %15, ptr noundef %1, i32 noundef %2, ptr noundef %3, ptr noundef nonnull align 8 dereferenceable(16) %4)
  %17 = load ptr, ptr %4, align 8, !tbaa !73
  %18 = icmp eq ptr %17, null
  br i1 %18, label %19, label %36

19:                                               ; preds = %_ZN7obj_refI4expr11ast_managerEaSEPS0_.exit
  %20 = load ptr, ptr %0, align 8, !tbaa !3
  %21 = load ptr, ptr %20, align 8, !tbaa !24
  %22 = tail call noundef ptr @_ZN11ast_manager6mk_appEP9func_decljPKP4expr(ptr noundef nonnull align 8 dereferenceable(976) %21, ptr noundef %1, i32 noundef %2, ptr noundef %3)
  %.not.i = icmp eq ptr %22, null
  br i1 %.not.i, label %26, label %_ZN11ast_manager7inc_refEP3ast.exit.i

_ZN11ast_manager7inc_refEP3ast.exit.i:            ; preds = %19
  %23 = getelementptr inbounds nuw i8, ptr %22, i64 8
  %24 = load i32, ptr %23, align 4, !tbaa !75
  %25 = add i32 %24, 1
  store i32 %25, ptr %23, align 4, !tbaa !75
  br label %26

26:                                               ; preds = %_ZN11ast_manager7inc_refEP3ast.exit.i, %19
  %27 = load ptr, ptr %4, align 8, !tbaa !73
  %.not.i4.i10 = icmp eq ptr %27, null
  br i1 %.not.i4.i10, label %_ZN7obj_refI4expr11ast_managerEaSEPS0_.exit11, label %28

28:                                               ; preds = %26
  %29 = getelementptr inbounds nuw i8, ptr %4, i64 8
  %30 = load ptr, ptr %29, align 8, !tbaa !74
  %31 = getelementptr inbounds nuw i8, ptr %27, i64 8
  %32 = load i32, ptr %31, align 4, !tbaa !75
  %33 = add i32 %32, -1
  store i32 %33, ptr %31, align 4, !tbaa !75
  %34 = icmp eq i32 %33, 0
  br i1 %34, label %35, label %_ZN7obj_refI4expr11ast_managerEaSEPS0_.exit11

35:                                               ; preds = %28
  tail call void @_ZN11ast_manager11delete_nodeEP3ast(ptr noundef nonnull align 8 dereferenceable(976) %30, ptr noundef nonnull %27)
  br label %_ZN7obj_refI4expr11ast_managerEaSEPS0_.exit11

_ZN7obj_refI4expr11ast_managerEaSEPS0_.exit11:    ; preds = %26, %28, %35
  store ptr %22, ptr %4, align 8, !tbaa !73
  br label %36

36:                                               ; preds = %_ZN7obj_refI4expr11ast_managerEaSEPS0_.exit11, %_ZN7obj_refI4expr11ast_managerEaSEPS0_.exit
  ret void
}